; Function Attrs: mustprogress nounwind uwtable
define void @_ZN9grpc_core19ConnectedSubchannelD2Ev(ptr noundef nonnull align 8 dereferenceable(40) %this) unnamed_addr #4 align 2 personality ptr @__gxx_personality_v0 {
entry:
  store ptr getelementptr inbounds ({ [4 x ptr] }, ptr @_ZTVN9grpc_core19ConnectedSubchannelE, i64 0, i32 0, i64 2), ptr %this, align 8
  %channel_stack_ = getelementptr inbounds i8, ptr %this, i64 16
  %0 = load ptr, ptr %channel_stack_, align 8
  %1 = atomicrmw sub ptr %0, i64 1 acq_rel, align 8
  %cmp.i.i = icmp eq i64 %1, 1
  br i1 %cmp.i.i, label %if.then.i, label %do.end

if.then.i:                                        ; preds = %entry
  invoke void @_Z19grpc_stream_destroyP20grpc_stream_refcount(ptr noundef nonnull %0)
          to label %do.end unwind label %terminate.lpad

do.end:                                           ; preds = %entry, %if.then.i
  %channelz_subchannel_ = getelementptr inbounds i8, ptr %this, i64 32
  %2 = load ptr, ptr %channelz_subchannel_, align 8
  %cmp.not.i = icmp eq ptr %2, null
  br i1 %cmp.not.i, label %_ZN9grpc_core13RefCountedPtrINS_8channelz14SubchannelNodeEED2Ev.exit, label %if.then.i1

if.then.i1:                                       ; preds = %do.end
  %refs_.i.i = getelementptr inbounds i8, ptr %2, i64 8
  %3 = atomicrmw sub ptr %refs_.i.i, i64 1 acq_rel, align 8
  %cmp.i.i.i = icmp eq i64 %3, 1
  br i1 %cmp.i.i.i, label %if.then.i.i, label %_ZN9grpc_core13RefCountedPtrINS_8channelz14SubchannelNodeEED2Ev.exit

if.then.i.i:                                      ; preds = %if.then.i1
  %vtable.i.i.i = load ptr, ptr %2, align 8
  %vfn.i.i.i = getelementptr inbounds i8, ptr %vtable.i.i.i, i64 8
  %4 = load ptr, ptr %vfn.i.i.i, align 8
  tail call void %4(ptr noundef nonnull align 8 dereferenceable(64) %2) #26
  br label %_ZN9grpc_core13RefCountedPtrINS_8channelz14SubchannelNodeEED2Ev.exit

_ZN9grpc_core13RefCountedPtrINS_8channelz14SubchannelNodeEED2Ev.exit: ; preds = %do.end, %if.then.i1, %if.then.i.i
  %args_ = getelementptr inbounds i8, ptr %this, i64 24
  tail call void @_ZN9grpc_core11ChannelArgsD1Ev(ptr noundef nonnull align 8 dereferenceable(8) %args_) #26
  ret void

terminate.lpad:                                   ; preds = %if.then.i
  %5 = landingpad { ptr, i32 }
          catch ptr null
  %6 = extractvalue { ptr, i32 } %5, 0
  tail call void @__clang_call_terminate(ptr %6) #27
  unreachable
}